target datalayout = "e-m:e-p270:32:32-p271:32:32-p272:64:64-i64:64-i128:128-f80:128-n8:16:32:64-S128"
target triple = "x86_64-pc-linux-gnu"

%"class.std::__cxx11::basic_string" = type { %"struct.std::__cxx11::basic_string<char>::_Alloc_hider", i64, %union.anon }
%"struct.std::__cxx11::basic_string<char>::_Alloc_hider" = type { ptr }
%union.anon = type { i64, [8 x i8] }
%"struct.std::_Rb_tree_header" = type { %"struct.std::_Rb_tree_node_base", i64 }
%"struct.std::_Rb_tree_node_base" = type { i32, ptr, ptr, ptr }
%"class.nlohmann::basic_json" = type { i8, %"union.nlohmann::basic_json<>::json_value" }
%"union.nlohmann::basic_json<>::json_value" = type { ptr }
%"struct.std::pair.113" = type { %"class.nlohmann::basic_json", %"class.std::map.115" }
%"class.std::map.115" = type { %"class.std::_Rb_tree.116" }
%"class.std::_Rb_tree.116" = type { %"struct.std::_Rb_tree<nix::ref<const nix::flake::Node>, std::pair<const nix::ref<const nix::flake::Node>, std::__cxx11::basic_string<char>>, std::_Select1st<std::pair<const nix::ref<const nix::flake::Node>, std::__cxx11::basic_string<char>>>, std::less<nix::ref<const nix::flake::Node>>>::_Rb_tree_impl" }
%"struct.std::_Rb_tree<nix::ref<const nix::flake::Node>, std::pair<const nix::ref<const nix::flake::Node>, std::__cxx11::basic_string<char>>, std::_Select1st<std::pair<const nix::ref<const nix::flake::Node>, std::__cxx11::basic_string<char>>>, std::less<nix::ref<const nix::flake::Node>>>::_Rb_tree_impl" = type { %"struct.std::_Rb_tree_key_compare.120", %"struct.std::_Rb_tree_header" }
%"struct.std::_Rb_tree_key_compare.120" = type { %"struct.std::less.121" }
%"struct.std::less.121" = type { i8 }

; Function Attrs: mustprogress uwtable
define noundef nonnull align 8 dereferenceable(8) ptr @_ZN3nix5flakelsERSoRKNS0_8LockFileE(ptr noundef nonnull align 8 dereferenceable(8) %0, ptr noundef nonnull align 8 dereferenceable(16) %1) #5 personality ptr @__gxx_personality_v0 {
  %3 = alloca ptr, align 8
  %4 = alloca ptr, align 8
  %5 = alloca %"class.std::__cxx11::basic_string", align 8
  %6 = alloca %"struct.std::pair.113", align 8
  %7 = alloca ptr, align 8
  %8 = alloca i32, align 4
  store ptr %0, ptr %3, align 8
  store ptr %1, ptr %4, align 8
  %9 = load ptr, ptr %3, align 8
  %10 = load ptr, ptr %4, align 8
  call void @_ZNK3nix5flake8LockFile6toJSONB5cxx11Ev(ptr dead_on_unwind writable sret(%"struct.std::pair.113") align 8 %6, ptr noundef nonnull align 8 dereferenceable(16) %10)
  %11 = getelementptr inbounds %"struct.std::pair.113", ptr %6, i32 0, i32 0
  invoke void @_ZNK8nlohmann10basic_jsonISt3mapSt6vectorNSt7__cxx1112basic_stringIcSt11char_traitsIcESaIcEEEblmdSaNS_14adl_serializerES2_IhSaIhEEE4dumpEicbNS_6detail15error_handler_tE(ptr dead_on_unwind writable sret(%"class.std::__cxx11::basic_string") align 8 %5, ptr noundef nonnull align 8 dereferenceable(16) %11, i32 noundef 2, i8 noundef signext 32, i1 noundef zeroext false, i32 noundef 0)
          to label %12 unwind label %16

12:                                               ; preds = %2
  %13 = invoke noundef nonnull align 8 dereferenceable(8) ptr @_ZStlsIcSt11char_traitsIcESaIcEERSt13basic_ostreamIT_T0_ES7_RKNSt7__cxx1112basic_stringIS4_S5_T1_EE(ptr noundef nonnull align 8 dereferenceable(8) %9, ptr noundef nonnull align 8 dereferenceable(32) %5)
          to label %14 unwind label %20

14:                                               ; preds = %12
  call void @_ZNSt7__cxx1112basic_stringIcSt11char_traitsIcESaIcEED2Ev(ptr noundef nonnull align 8 dereferenceable(32) %5) #1
  call void @_ZNSt4pairIN8nlohmann10basic_jsonISt3mapSt6vectorNSt7__cxx1112basic_stringIcSt11char_traitsIcESaIcEEEblmdSaNS0_14adl_serializerES3_IhSaIhEEEES2_IN3nix3refIKNSE_5flake4NodeEEES9_St4lessISJ_ESaIS_IKSJ_S9_EEEED2Ev(ptr noundef nonnull align 8 dereferenceable(64) %6) #1
  %15 = load ptr, ptr %3, align 8
  ret ptr %15

16:                                               ; preds = %2
  %17 = landingpad { ptr, i32 }
          cleanup
  %18 = extractvalue { ptr, i32 } %17, 0
  store ptr %18, ptr %7, align 8
  %19 = extractvalue { ptr, i32 } %17, 1
  store i32 %19, ptr %8, align 4
  br label %24

20:                                               ; preds = %12
  %21 = landingpad { ptr, i32 }
          cleanup
  %22 = extractvalue { ptr, i32 } %21, 0
  store ptr %22, ptr %7, align 8
  %23 = extractvalue { ptr, i32 } %21, 1
  store i32 %23, ptr %8, align 4
  call void @_ZNSt7__cxx1112basic_stringIcSt11char_traitsIcESaIcEED2Ev(ptr noundef nonnull align 8 dereferenceable(32) %5) #1
  br label %24

24:                                               ; preds = %20, %16
  call void @_ZNSt4pairIN8nlohmann10basic_jsonISt3mapSt6vectorNSt7__cxx1112basic_stringIcSt11char_traitsIcESaIcEEEblmdSaNS0_14adl_serializerES3_IhSaIhEEEES2_IN3nix3refIKNSE_5flake4NodeEEES9_St4lessISJ_ESaIS_IKSJ_S9_EEEED2Ev(ptr noundef nonnull align 8 dereferenceable(64) %6) #1
  br label %25

25:                                               ; preds = %24
  %26 = load ptr, ptr %7, align 8
  %27 = load i32, ptr %8, align 4
  %28 = insertvalue { ptr, i32 } poison, ptr %26, 0
  %29 = insertvalue { ptr, i32 } %28, i32 %27, 1
  resume { ptr, i32 } %29
}