; Function Attrs: mustprogress uwtable
define noundef nonnull align 8 dereferenceable(8) ptr @_ZN3nix5flakelsERSoRKNS0_8LockFileE(ptr noundef nonnull returned align 8 dereferenceable(8) %0, ptr noundef nonnull align 8 dereferenceable(16) %1) local_unnamed_addr #4 personality ptr @__gxx_personality_v0 {
  %3 = alloca %"class.std::__cxx11::basic_string", align 8
  %4 = alloca %"struct.std::pair.113", align 8
  call void @_ZNK3nix5flake8LockFile6toJSONB5cxx11Ev(ptr dead_on_unwind nonnull writable sret(%"struct.std::pair.113") align 8 %4, ptr noundef nonnull align 8 dereferenceable(16) %1)
  invoke void @_ZNK8nlohmann10basic_jsonISt3mapSt6vectorNSt7__cxx1112basic_stringIcSt11char_traitsIcESaIcEEEblmdSaNS_14adl_serializerES2_IhSaIhEEE4dumpEicbNS_6detail15error_handler_tE(ptr dead_on_unwind nonnull writable sret(%"class.std::__cxx11::basic_string") align 8 %3, ptr noundef nonnull align 8 dereferenceable(16) %4, i32 noundef 2, i8 noundef signext 32, i1 noundef zeroext false, i32 noundef 0)
          to label %5 unwind label %25

5:                                                ; preds = %2
  %6 = invoke noundef nonnull align 8 dereferenceable(8) ptr @_ZStlsIcSt11char_traitsIcESaIcEERSt13basic_ostreamIT_T0_ES7_RKNSt7__cxx1112basic_stringIS4_S5_T1_EE(ptr noundef nonnull align 8 dereferenceable(8) %0, ptr noundef nonnull align 8 dereferenceable(32) %3)
          to label %7 unwind label %27

7:                                                ; preds = %5
  %8 = load ptr, ptr %3, align 8
  %9 = getelementptr inbounds i8, ptr %3, i64 16
  %10 = icmp eq ptr %8, %9
  br i1 %10, label %_ZNKSt7__cxx1112basic_stringIcSt11char_traitsIcESaIcEE11_M_is_localEv.exit.thread.i.i, label %_ZNKSt7__cxx1112basic_stringIcSt11char_traitsIcESaIcEE11_M_is_localEv.exit.i.i

_ZNKSt7__cxx1112basic_stringIcSt11char_traitsIcESaIcEE11_M_is_localEv.exit.thread.i.i: ; preds = %7
  %11 = getelementptr inbounds i8, ptr %3, i64 8
  %12 = load i64, ptr %11, align 8
  %13 = icmp ult i64 %12, 16
  call void @llvm.assume(i1 %13)
  br label %_ZNSt7__cxx1112basic_stringIcSt11char_traitsIcESaIcEED2Ev.exit

_ZNKSt7__cxx1112basic_stringIcSt11char_traitsIcESaIcEE11_M_is_localEv.exit.i.i: ; preds = %7
  call void @_ZdlPv(ptr noundef %8) #32
  br label %_ZNSt7__cxx1112basic_stringIcSt11char_traitsIcESaIcEED2Ev.exit

_ZNSt7__cxx1112basic_stringIcSt11char_traitsIcESaIcEED2Ev.exit: ; preds = %_ZNKSt7__cxx1112basic_stringIcSt11char_traitsIcESaIcEE11_M_is_localEv.exit.thread.i.i, %_ZNKSt7__cxx1112basic_stringIcSt11char_traitsIcESaIcEE11_M_is_localEv.exit.i.i
  call void @_ZNSaIcED2Ev(ptr noundef nonnull align 1 dereferenceable(1) %3) #29
  %14 = getelementptr inbounds i8, ptr %4, i64 16
  %15 = getelementptr inbounds i8, ptr %4, i64 32
  %16 = load ptr, ptr %15, align 8
  invoke void @_ZNSt8_Rb_treeIN3nix3refIKNS0_5flake4NodeEEESt4pairIKS5_NSt7__cxx1112basic_stringIcSt11char_traitsIcESaIcEEEESt10_Select1stISE_ESt4lessIS5_ESaISE_EE8_M_eraseEPSt13_Rb_tree_nodeISE_E(ptr noundef nonnull align 8 dereferenceable(48) %14, ptr noundef %16)
          to label %_ZNSt3mapIN3nix3refIKNS0_5flake4NodeEEENSt7__cxx1112basic_stringIcSt11char_traitsIcESaIcEEESt4lessIS5_ESaISt4pairIKS5_SB_EEED2Ev.exit.i unwind label %17

17:                                               ; preds = %_ZNSt7__cxx1112basic_stringIcSt11char_traitsIcESaIcEED2Ev.exit
  %18 = landingpad { ptr, i32 }
          catch ptr null
  %19 = extractvalue { ptr, i32 } %18, 0
  call void @__clang_call_terminate(ptr %19) #33
  unreachable

_ZNSt3mapIN3nix3refIKNS0_5flake4NodeEEENSt7__cxx1112basic_stringIcSt11char_traitsIcESaIcEEESt4lessIS5_ESaISt4pairIKS5_SB_EEED2Ev.exit.i: ; preds = %_ZNSt7__cxx1112basic_stringIcSt11char_traitsIcESaIcEED2Ev.exit
  %20 = getelementptr inbounds i8, ptr %4, i64 8
  %21 = load i8, ptr %4, align 8
  invoke void @_ZN8nlohmann10basic_jsonISt3mapSt6vectorNSt7__cxx1112basic_stringIcSt11char_traitsIcESaIcEEEblmdSaNS_14adl_serializerES2_IhSaIhEEE10json_value7destroyENS_6detail7value_tE(ptr noundef nonnull align 8 dereferenceable(8) %20, i8 noundef zeroext %21) #35
          to label %_ZNSt4pairIN8nlohmann10basic_jsonISt3mapSt6vectorNSt7__cxx1112basic_stringIcSt11char_traitsIcESaIcEEEblmdSaNS0_14adl_serializerES3_IhSaIhEEEES2_IN3nix3refIKNSE_5flake4NodeEEES9_St4lessISJ_ESaIS_IKSJ_S9_EEEED2Ev.exit unwind label %22

22:                                               ; preds = %_ZNSt3mapIN3nix3refIKNS0_5flake4NodeEEENSt7__cxx1112basic_stringIcSt11char_traitsIcESaIcEEESt4lessIS5_ESaISt4pairIKS5_SB_EEED2Ev.exit.i
  %23 = landingpad { ptr, i32 }
          catch ptr null
  %24 = extractvalue { ptr, i32 } %23, 0
  call void @__clang_call_terminate(ptr %24) #33
  unreachable

_ZNSt4pairIN8nlohmann10basic_jsonISt3mapSt6vectorNSt7__cxx1112basic_stringIcSt11char_traitsIcESaIcEEEblmdSaNS0_14adl_serializerES3_IhSaIhEEEES2_IN3nix3refIKNSE_5flake4NodeEEES9_St4lessISJ_ESaIS_IKSJ_S9_EEEED2Ev.exit: ; preds = %_ZNSt3mapIN3nix3refIKNS0_5flake4NodeEEENSt7__cxx1112basic_stringIcSt11char_traitsIcESaIcEEESt4lessIS5_ESaISt4pairIKS5_SB_EEED2Ev.exit.i
  ret ptr %0

25:                                               ; preds = %2
  %26 = landingpad { ptr, i32 }
          cleanup
  br label %29

27:                                               ; preds = %5
  %28 = landingpad { ptr, i32 }
          cleanup
  call void @_ZNSt7__cxx1112basic_stringIcSt11char_traitsIcESaIcEED2Ev(ptr noundef nonnull align 8 dereferenceable(32) %3) #29
  br label %29

29:                                               ; preds = %27, %25
  %.pn = phi { ptr, i32 } [ %28, %27 ], [ %26, %25 ]
  call void @_ZNSt4pairIN8nlohmann10basic_jsonISt3mapSt6vectorNSt7__cxx1112basic_stringIcSt11char_traitsIcESaIcEEEblmdSaNS0_14adl_serializerES3_IhSaIhEEEES2_IN3nix3refIKNSE_5flake4NodeEEES9_St4lessISJ_ESaIS_IKSJ_S9_EEEED2Ev(ptr noundef nonnull align 8 dereferenceable(64) %4) #29
  resume { ptr, i32 } %.pn
}